target datalayout = "e-m:e-p270:32:32-p271:32:32-p272:64:64-i64:64-i128:128-f80:128-n8:16:32:64-S128"
target triple = "x86_64-pc-linux-gnu"

@.str = private unnamed_addr constant [30 x i8] c"Assertion %s failed at %s:%d\0A\00", align 1
@.str.2 = private unnamed_addr constant [20 x i8] c"libswscale/output.c\00", align 1
@.str.5 = private unnamed_addr constant [18 x i8] c"output_bits == 16\00", align 1

; Function Attrs: alwaysinline nounwind willreturn memory(none) uwtable
define internal zeroext i16 @av_bswap16(i16 noundef zeroext %0) #6 {
  %2 = alloca i16, align 2
  store i16 %0, ptr %2, align 2, !tbaa !49
  %3 = load i16, ptr %2, align 2, !tbaa !49
  %4 = zext i16 %3 to i32
  %5 = ashr i32 %4, 8
  %6 = load i16, ptr %2, align 2, !tbaa !49
  %7 = zext i16 %6 to i32
  %8 = shl i32 %7, 8
  %9 = or i32 %5, %8
  %10 = trunc i32 %9 to i16
  store i16 %10, ptr %2, align 2, !tbaa !49
  %11 = load i16, ptr %2, align 2, !tbaa !49
  ret i16 %11
}

; Function Attrs: alwaysinline nounwind willreturn memory(none) uwtable
define internal zeroext i16 @av_clip_uint16_c(i32 noundef %0) #6 {
  %2 = alloca i16, align 2
  %3 = alloca i32, align 4
  store i32 %0, ptr %3, align 4, !tbaa !30
  %4 = load i32, ptr %3, align 4, !tbaa !30
  %5 = and i32 %4, -65536
  %6 = icmp ne i32 %5, 0
  br i1 %6, label %7, label %12

7:                                                ; preds = %1
  %8 = load i32, ptr %3, align 4, !tbaa !30
  %9 = xor i32 %8, -1
  %10 = ashr i32 %9, 31
  %11 = trunc i32 %10 to i16
  store i16 %11, ptr %2, align 2
  br label %15

12:                                               ; preds = %1
  %13 = load i32, ptr %3, align 4, !tbaa !30
  %14 = trunc i32 %13 to i16
  store i16 %14, ptr %2, align 2
  br label %15

15:                                               ; preds = %12, %7
  %16 = load i16, ptr %2, align 2
  ret i16 %16
}

; Function Attrs: alwaysinline nounwind uwtable
define internal void @yuv2plane1_16_c_template(ptr noundef %0, ptr noundef %1, i32 noundef %2, i32 noundef %3, i32 noundef %4) #3 {
  %6 = alloca ptr, align 8
  %7 = alloca ptr, align 8
  %8 = alloca i32, align 4
  %9 = alloca i32, align 4
  %10 = alloca i32, align 4
  %11 = alloca i32, align 4
  %12 = alloca i32, align 4
  %13 = alloca i32, align 4
  store ptr %0, ptr %6, align 8, !tbaa !61
  store ptr %1, ptr %7, align 8, !tbaa !45
  store i32 %2, ptr %8, align 4, !tbaa !30
  store i32 %3, ptr %9, align 4, !tbaa !30
  store i32 %4, ptr %10, align 4, !tbaa !30
  call void @llvm.lifetime.start.p0(i64 4, ptr %11) #8
  call void @llvm.lifetime.start.p0(i64 4, ptr %12) #8
  store i32 3, ptr %12, align 4, !tbaa !30
  br label %14

14:                                               ; preds = %5
  %15 = load i32, ptr %10, align 4, !tbaa !30
  %16 = icmp eq i32 %15, 16
  br i1 %16, label %18, label %17

17:                                               ; preds = %14
  call void (ptr, i32, ptr, ...) @av_log(ptr noundef null, i32 noundef 0, ptr noundef @.str, ptr noundef @.str.5, ptr noundef @.str.2, i32 noundef 155)
  call void @abort() #9
  unreachable

18:                                               ; preds = %14
  br label %19

19:                                               ; preds = %18
  br label %20

20:                                               ; preds = %19
  store i32 0, ptr %11, align 4, !tbaa !30
  br label %21

21:                                               ; preds = %63, %20
  %22 = load i32, ptr %11, align 4, !tbaa !30
  %23 = load i32, ptr %8, align 4, !tbaa !30
  %24 = icmp slt i32 %22, %23
  br i1 %24, label %25, label %66

25:                                               ; preds = %21
  call void @llvm.lifetime.start.p0(i64 4, ptr %13) #8
  %26 = load ptr, ptr %6, align 8, !tbaa !61
  %27 = load i32, ptr %11, align 4, !tbaa !30
  %28 = sext i32 %27 to i64
  %29 = getelementptr inbounds i32, ptr %26, i64 %28
  %30 = load i32, ptr %29, align 4, !tbaa !30
  %31 = load i32, ptr %12, align 4, !tbaa !30
  %32 = sub nsw i32 %31, 1
  %33 = shl i32 1, %32
  %34 = add nsw i32 %30, %33
  store i32 %34, ptr %13, align 4, !tbaa !30
  %35 = load i32, ptr %9, align 4, !tbaa !30
  %36 = icmp ne i32 %35, 0
  br i1 %36, label %37, label %50

37:                                               ; preds = %25
  %38 = load i32, ptr %13, align 4, !tbaa !30
  %39 = load i32, ptr %12, align 4, !tbaa !30
  %40 = ashr i32 %38, %39
  %41 = call zeroext i16 @av_clip_uint16_c(i32 noundef %40) #10
  %42 = zext i16 %41 to i32
  %43 = add nsw i32 0, %42
  %44 = trunc i32 %43 to i16
  %45 = call zeroext i16 @av_bswap16(i16 noundef zeroext %44) #10
  %46 = load ptr, ptr %7, align 8, !tbaa !45
  %47 = load i32, ptr %11, align 4, !tbaa !30
  %48 = sext i32 %47 to i64
  %49 = getelementptr inbounds i16, ptr %46, i64 %48
  store i16 %45, ptr %49, align 1, !tbaa !51
  br label %62

50:                                               ; preds = %25
  %51 = load i32, ptr %13, align 4, !tbaa !30
  %52 = load i32, ptr %12, align 4, !tbaa !30
  %53 = ashr i32 %51, %52
  %54 = call zeroext i16 @av_clip_uint16_c(i32 noundef %53) #10
  %55 = zext i16 %54 to i32
  %56 = add nsw i32 0, %55
  %57 = trunc i32 %56 to i16
  %58 = load ptr, ptr %7, align 8, !tbaa !45
  %59 = load i32, ptr %11, align 4, !tbaa !30
  %60 = sext i32 %59 to i64
  %61 = getelementptr inbounds i16, ptr %58, i64 %60
  store i16 %57, ptr %61, align 1, !tbaa !51
  br label %62

62:                                               ; preds = %50, %37
  call void @llvm.lifetime.end.p0(i64 4, ptr %13) #8
  br label %63

63:                                               ; preds = %62
  %64 = load i32, ptr %11, align 4, !tbaa !30
  %65 = add nsw i32 %64, 1
  store i32 %65, ptr %11, align 4, !tbaa !30
  br label %21, !llvm.loop !113

66:                                               ; preds = %21
  call void @llvm.lifetime.end.p0(i64 4, ptr %12) #8
  call void @llvm.lifetime.end.p0(i64 4, ptr %11) #8
  ret void
}

; Function Attrs: nounwind uwtable
define internal void @yuv2plane1_16LE_c(ptr noundef %0, ptr noundef %1, i32 noundef %2, ptr noundef %3, i32 noundef %4) #4 {
  %6 = alloca ptr, align 8
  %7 = alloca ptr, align 8
  %8 = alloca i32, align 4
  %9 = alloca ptr, align 8
  %10 = alloca i32, align 4
  store ptr %0, ptr %6, align 8, !tbaa !45
  store ptr %1, ptr %7, align 8, !tbaa !46
  store i32 %2, ptr %8, align 4, !tbaa !30
  store ptr %3, ptr %9, align 8, !tbaa !46
  store i32 %4, ptr %10, align 4, !tbaa !30
  %11 = load ptr, ptr %6, align 8, !tbaa !45
  %12 = load ptr, ptr %7, align 8, !tbaa !46
  %13 = load i32, ptr %8, align 4, !tbaa !30
  call void @yuv2plane1_16_c_template(ptr noundef %11, ptr noundef %12, i32 noundef %13, i32 noundef 0, i32 noundef 16)
  ret void
}